target datalayout = "e-m:e-p270:32:32-p271:32:32-p272:64:64-i64:64-i128:128-f80:128-n8:16:32:64-S128"
target triple = "x86_64-pc-linux-gnu"

%struct.H5FL_seq_head_t = type { %struct.H5FL_blk_head_t, i64 }
%struct.H5FL_blk_head_t = type { i8, i32, i32, i64, ptr, ptr }

@H5D_init_g = external global i8, align 1
@H5_libterm_g = external global i8, align 1
@.str = private unnamed_addr constant [105 x i8] c"generated/home/dtcxzyw/WorkSpace/Projects/compilers/llvm-opt-benchmark/bench/hdf5/hdf5/src/H5Dscatgath.c\00", align 1
@__func__.H5D__scatter_mem = private unnamed_addr constant [17 x i8] c"H5D__scatter_mem\00", align 1
@H5E_DATASET_g = external global i64, align 8
@H5E_CANTGET_g = external global i64, align 8
@.str.1 = private unnamed_addr constant [31 x i8] c"can't retrieve I/O vector size\00", align 1
@H5_size_t_seq_free_list = external global %struct.H5FL_seq_head_t, align 8
@H5E_CANTALLOC_g = external global i64, align 8
@.str.2 = private unnamed_addr constant [39 x i8] c"can't allocate I/O length vector array\00", align 1
@H5_hsize_t_seq_free_list = external global %struct.H5FL_seq_head_t, align 8
@.str.3 = private unnamed_addr constant [39 x i8] c"can't allocate I/O offset vector array\00", align 1
@H5E_INTERNAL_g = external global i64, align 8
@H5E_UNSUPPORTED_g = external global i64, align 8
@.str.4 = private unnamed_addr constant [34 x i8] c"sequence length generation failed\00", align 1

; Function Attrs: nounwind uwtable
define i32 @H5D__scatter_mem(ptr noundef %0, ptr noundef %1, i64 noundef %2, ptr noundef %3) #0 {
  %5 = alloca ptr, align 8
  %6 = alloca ptr, align 8
  %7 = alloca i64, align 8
  %8 = alloca ptr, align 8
  %9 = alloca ptr, align 8
  %10 = alloca ptr, align 8
  %11 = alloca ptr, align 8
  %12 = alloca ptr, align 8
  %13 = alloca i64, align 8
  %14 = alloca i64, align 8
  %15 = alloca i64, align 8
  %16 = alloca i64, align 8
  %17 = alloca i64, align 8
  %18 = alloca i64, align 8
  %19 = alloca i32, align 4
  %20 = alloca i8, align 1
  store ptr %0, ptr %5, align 8, !tbaa !3
  store ptr %1, ptr %6, align 8, !tbaa !7
  store i64 %2, ptr %7, align 8, !tbaa !9
  store ptr %3, ptr %8, align 8, !tbaa !3
  call void @llvm.lifetime.start.p0(i64 8, ptr %9) #8
  %21 = load ptr, ptr %8, align 8, !tbaa !3
  store ptr %21, ptr %9, align 8, !tbaa !11
  call void @llvm.lifetime.start.p0(i64 8, ptr %10) #8
  %22 = load ptr, ptr %5, align 8, !tbaa !3
  store ptr %22, ptr %10, align 8, !tbaa !11
  call void @llvm.lifetime.start.p0(i64 8, ptr %11) #8
  store ptr null, ptr %11, align 8, !tbaa !13
  call void @llvm.lifetime.start.p0(i64 8, ptr %12) #8
  store ptr null, ptr %12, align 8, !tbaa !13
  call void @llvm.lifetime.start.p0(i64 8, ptr %13) #8
  call void @llvm.lifetime.start.p0(i64 8, ptr %14) #8
  call void @llvm.lifetime.start.p0(i64 8, ptr %15) #8
  call void @llvm.lifetime.start.p0(i64 8, ptr %16) #8
  call void @llvm.lifetime.start.p0(i64 8, ptr %17) #8
  call void @llvm.lifetime.start.p0(i64 8, ptr %18) #8
  call void @llvm.lifetime.start.p0(i64 4, ptr %19) #8
  store i32 0, ptr %19, align 4, !tbaa !15
  call void @llvm.lifetime.start.p0(i64 1, ptr %20) #8
  store i8 0, ptr %20, align 1, !tbaa !17
  %23 = load i8, ptr @H5D_init_g, align 1, !tbaa !17, !range !19, !noundef !20
  %24 = trunc i8 %23 to i1
  br i1 %24, label %29, label %25

25:                                               ; preds = %4
  %26 = load i8, ptr @H5_libterm_g, align 1, !tbaa !17, !range !19, !noundef !20
  %27 = trunc i8 %26 to i1
  %28 = xor i1 %27, true
  br label %29

29:                                               ; preds = %25, %4
  %30 = phi i1 [ true, %4 ], [ %28, %25 ]
  %31 = xor i1 %30, true
  %32 = xor i1 %31, true
  %33 = zext i1 %32 to i32
  %34 = sext i32 %33 to i64
  %35 = call i64 @llvm.expect.i64(i64 %34, i64 1)
  %36 = icmp ne i64 %35, 0
  br i1 %36, label %37, label %184

37:                                               ; preds = %29
  %38 = call i32 @H5CX_get_vec_size(ptr noundef %17)
  %39 = icmp slt i32 %38, 0
  br i1 %39, label %40, label %59

40:                                               ; preds = %37
  br label %41

41:                                               ; preds = %40
  br label %42

42:                                               ; preds = %41
  br label %43

43:                                               ; preds = %42
  %44 = load i64, ptr @H5E_DATASET_g, align 8, !tbaa !9
  %45 = load i64, ptr @H5E_CANTGET_g, align 8, !tbaa !9
  %46 = call i32 (ptr, ptr, i32, i64, i64, ptr, ...) @H5E_printf_stack(ptr noundef @.str, ptr noundef @__func__.H5D__scatter_mem, i32 noundef 310, i64 noundef %44, i64 noundef %45, ptr noundef @.str.1)
  br label %47

47:                                               ; preds = %43
  br label %48

48:                                               ; preds = %47
  store i8 1, ptr %20, align 1, !tbaa !17
  %49 = load i8, ptr %20, align 1, !tbaa !17, !range !19, !noundef !20
  %50 = trunc i8 %49 to i1
  %51 = zext i1 %50 to i8
  store i8 %51, ptr %20, align 1, !tbaa !17
  br label %52

52:                                               ; preds = %48
  br label %53

53:                                               ; preds = %52
  br label %54

54:                                               ; preds = %53
  store i32 -1, ptr %19, align 4, !tbaa !15
  br label %171

55:                                               ; No predecessors!
  br label %56

56:                                               ; preds = %55
  br label %57

57:                                               ; preds = %56
  br label %58

58:                                               ; preds = %57
  br label %59

59:                                               ; preds = %58, %37
  %60 = load i64, ptr %17, align 8, !tbaa !9
  %61 = icmp ugt i64 %60, 1024
  br i1 %61, label %62, label %64

62:                                               ; preds = %59
  %63 = load i64, ptr %17, align 8, !tbaa !9
  store i64 %63, ptr %18, align 8, !tbaa !9
  br label %65

64:                                               ; preds = %59
  store i64 1024, ptr %18, align 8, !tbaa !9
  br label %65

65:                                               ; preds = %64, %62
  %66 = load i64, ptr %18, align 8, !tbaa !9
  %67 = call noalias ptr @H5FL_seq_malloc(ptr noundef @H5_size_t_seq_free_list, i64 noundef %66)
  store ptr %67, ptr %12, align 8, !tbaa !13
  %68 = icmp eq ptr null, %67
  br i1 %68, label %69, label %88

69:                                               ; preds = %65
  br label %70

70:                                               ; preds = %69
  br label %71

71:                                               ; preds = %70
  br label %72

72:                                               ; preds = %71
  %73 = load i64, ptr @H5E_DATASET_g, align 8, !tbaa !9
  %74 = load i64, ptr @H5E_CANTALLOC_g, align 8, !tbaa !9
  %75 = call i32 (ptr, ptr, i32, i64, i64, ptr, ...) @H5E_printf_stack(ptr noundef @.str, ptr noundef @__func__.H5D__scatter_mem, i32 noundef 318, i64 noundef %73, i64 noundef %74, ptr noundef @.str.2)
  br label %76

76:                                               ; preds = %72
  br label %77

77:                                               ; preds = %76
  store i8 1, ptr %20, align 1, !tbaa !17
  %78 = load i8, ptr %20, align 1, !tbaa !17, !range !19, !noundef !20
  %79 = trunc i8 %78 to i1
  %80 = zext i1 %79 to i8
  store i8 %80, ptr %20, align 1, !tbaa !17
  br label %81

81:                                               ; preds = %77
  br label %82

82:                                               ; preds = %81
  br label %83

83:                                               ; preds = %82
  store i32 -1, ptr %19, align 4, !tbaa !15
  br label %171

84:                                               ; No predecessors!
  br label %85

85:                                               ; preds = %84
  br label %86

86:                                               ; preds = %85
  br label %87

87:                                               ; preds = %86
  br label %88

88:                                               ; preds = %87, %65
  %89 = load i64, ptr %18, align 8, !tbaa !9
  %90 = call noalias ptr @H5FL_seq_malloc(ptr noundef @H5_hsize_t_seq_free_list, i64 noundef %89)
  store ptr %90, ptr %11, align 8, !tbaa !13
  %91 = icmp eq ptr null, %90
  br i1 %91, label %92, label %111

92:                                               ; preds = %88
  br label %93

93:                                               ; preds = %92
  br label %94

94:                                               ; preds = %93
  br label %95

95:                                               ; preds = %94
  %96 = load i64, ptr @H5E_DATASET_g, align 8, !tbaa !9
  %97 = load i64, ptr @H5E_CANTALLOC_g, align 8, !tbaa !9
  %98 = call i32 (ptr, ptr, i32, i64, i64, ptr, ...) @H5E_printf_stack(ptr noundef @.str, ptr noundef @__func__.H5D__scatter_mem, i32 noundef 320, i64 noundef %96, i64 noundef %97, ptr noundef @.str.3)
  br label %99

99:                                               ; preds = %95
  br label %100

100:                                              ; preds = %99
  store i8 1, ptr %20, align 1, !tbaa !17
  %101 = load i8, ptr %20, align 1, !tbaa !17, !range !19, !noundef !20
  %102 = trunc i8 %101 to i1
  %103 = zext i1 %102 to i8
  store i8 %103, ptr %20, align 1, !tbaa !17
  br label %104

104:                                              ; preds = %100
  br label %105

105:                                              ; preds = %104
  br label %106

106:                                              ; preds = %105
  store i32 -1, ptr %19, align 4, !tbaa !15
  br label %171

107:                                              ; No predecessors!
  br label %108

108:                                              ; preds = %107
  br label %109

109:                                              ; preds = %108
  br label %110

110:                                              ; preds = %109
  br label %111

111:                                              ; preds = %110, %88
  br label %112

112:                                              ; preds = %166, %111
  %113 = load i64, ptr %7, align 8, !tbaa !9
  %114 = icmp ugt i64 %113, 0
  br i1 %114, label %115, label %170

115:                                              ; preds = %112
  %116 = load ptr, ptr %6, align 8, !tbaa !7
  %117 = load i64, ptr %18, align 8, !tbaa !9
  %118 = load i64, ptr %7, align 8, !tbaa !9
  %119 = load ptr, ptr %11, align 8, !tbaa !13
  %120 = load ptr, ptr %12, align 8, !tbaa !13
  %121 = call i32 @H5S_select_iter_get_seq_list(ptr noundef %116, i64 noundef %117, i64 noundef %118, ptr noundef %14, ptr noundef %16, ptr noundef %119, ptr noundef %120)
  %122 = icmp slt i32 %121, 0
  br i1 %122, label %123, label %142

123:                                              ; preds = %115
  br label %124

124:                                              ; preds = %123
  br label %125

125:                                              ; preds = %124
  br label %126

126:                                              ; preds = %125
  %127 = load i64, ptr @H5E_INTERNAL_g, align 8, !tbaa !9
  %128 = load i64, ptr @H5E_UNSUPPORTED_g, align 8, !tbaa !9
  %129 = call i32 (ptr, ptr, i32, i64, i64, ptr, ...) @H5E_printf_stack(ptr noundef @.str, ptr noundef @__func__.H5D__scatter_mem, i32 noundef 326, i64 noundef %127, i64 noundef %128, ptr noundef @.str.4)
  br label %130

130:                                              ; preds = %126
  br label %131

131:                                              ; preds = %130
  store i8 1, ptr %20, align 1, !tbaa !17
  %132 = load i8, ptr %20, align 1, !tbaa !17, !range !19, !noundef !20
  %133 = trunc i8 %132 to i1
  %134 = zext i1 %133 to i8
  store i8 %134, ptr %20, align 1, !tbaa !17
  br label %135

135:                                              ; preds = %131
  br label %136

136:                                              ; preds = %135
  br label %137

137:                                              ; preds = %136
  store i32 0, ptr %19, align 4, !tbaa !15
  br label %171

138:                                              ; No predecessors!
  br label %139

139:                                              ; preds = %138
  br label %140

140:                                              ; preds = %139
  br label %141

141:                                              ; preds = %140
  br label %142

142:                                              ; preds = %141, %115
  store i64 0, ptr %15, align 8, !tbaa !9
  br label %143

143:                                              ; preds = %163, %142
  %144 = load i64, ptr %15, align 8, !tbaa !9
  %145 = load i64, ptr %14, align 8, !tbaa !9
  %146 = icmp ult i64 %144, %145
  br i1 %146, label %147, label %166

147:                                              ; preds = %143
  %148 = load ptr, ptr %12, align 8, !tbaa !13
  %149 = load i64, ptr %15, align 8, !tbaa !9
  %150 = getelementptr inbounds nuw i64, ptr %148, i64 %149
  %151 = load i64, ptr %150, align 8, !tbaa !9
  store i64 %151, ptr %13, align 8, !tbaa !9
  %152 = load ptr, ptr %9, align 8, !tbaa !11
  %153 = load ptr, ptr %11, align 8, !tbaa !13
  %154 = load i64, ptr %15, align 8, !tbaa !9
  %155 = getelementptr inbounds nuw i64, ptr %153, i64 %154
  %156 = load i64, ptr %155, align 8, !tbaa !9
  %157 = getelementptr inbounds nuw i8, ptr %152, i64 %156
  %158 = load ptr, ptr %10, align 8, !tbaa !11
  %159 = load i64, ptr %13, align 8, !tbaa !9
  call void @llvm.memcpy.p0.p0.i64(ptr align 1 %157, ptr align 1 %158, i64 %159, i1 false)
  %160 = load i64, ptr %13, align 8, !tbaa !9
  %161 = load ptr, ptr %10, align 8, !tbaa !11
  %162 = getelementptr inbounds nuw i8, ptr %161, i64 %160
  store ptr %162, ptr %10, align 8, !tbaa !11
  br label %163

163:                                              ; preds = %147
  %164 = load i64, ptr %15, align 8, !tbaa !9
  %165 = add i64 %164, 1
  store i64 %165, ptr %15, align 8, !tbaa !9
  br label %143, !llvm.loop !21

166:                                              ; preds = %143
  %167 = load i64, ptr %16, align 8, !tbaa !9
  %168 = load i64, ptr %7, align 8, !tbaa !9
  %169 = sub i64 %168, %167
  store i64 %169, ptr %7, align 8, !tbaa !9
  br label %112, !llvm.loop !23

170:                                              ; preds = %112
  br label %171

171:                                              ; preds = %170, %137, %106, %83, %54
  %172 = load ptr, ptr %12, align 8, !tbaa !13
  %173 = icmp ne ptr %172, null
  br i1 %173, label %174, label %177

174:                                              ; preds = %171
  %175 = load ptr, ptr %12, align 8, !tbaa !13
  %176 = call ptr @H5FL_seq_free(ptr noundef @H5_size_t_seq_free_list, ptr noundef %175)
  store ptr %176, ptr %12, align 8, !tbaa !13
  br label %177

177:                                              ; preds = %174, %171
  %178 = load ptr, ptr %11, align 8, !tbaa !13
  %179 = icmp ne ptr %178, null
  br i1 %179, label %180, label %183

180:                                              ; preds = %177
  %181 = load ptr, ptr %11, align 8, !tbaa !13
  %182 = call ptr @H5FL_seq_free(ptr noundef @H5_hsize_t_seq_free_list, ptr noundef %181)
  store ptr %182, ptr %11, align 8, !tbaa !13
  br label %183

183:                                              ; preds = %180, %177
  br label %184

184:                                              ; preds = %183, %29
  %185 = load i32, ptr %19, align 4, !tbaa !15
  call void @llvm.lifetime.end.p0(i64 1, ptr %20) #8
  call void @llvm.lifetime.end.p0(i64 4, ptr %19) #8
  call void @llvm.lifetime.end.p0(i64 8, ptr %18) #8
  call void @llvm.lifetime.end.p0(i64 8, ptr %17) #8
  call void @llvm.lifetime.end.p0(i64 8, ptr %16) #8
  call void @llvm.lifetime.end.p0(i64 8, ptr %15) #8
  call void @llvm.lifetime.end.p0(i64 8, ptr %14) #8
  call void @llvm.lifetime.end.p0(i64 8, ptr %13) #8
  call void @llvm.lifetime.end.p0(i64 8, ptr %12) #8
  call void @llvm.lifetime.end.p0(i64 8, ptr %11) #8
  call void @llvm.lifetime.end.p0(i64 8, ptr %10) #8
  call void @llvm.lifetime.end.p0(i64 8, ptr %9) #8
  ret i32 %185
}